; Function Attrs: mustprogress uwtable
define dso_local void @_ZN25cmGhsMultiTargetGenerator13WriteIncludesERSoRKNSt7__cxx1112basic_stringIcSt11char_traitsIcESaIcEEES8_(ptr nocapture noundef nonnull readonly align 8 dereferenceable(232) %0, ptr noundef nonnull align 8 dereferenceable(8) %1, ptr noundef nonnull align 8 dereferenceable(32) %2, ptr noundef nonnull align 8 dereferenceable(32) %3) local_unnamed_addr #3 align 2 personality ptr @__gxx_personality_v0 {
  %5 = alloca %"class.std::vector", align 8
  call void @llvm.memset.p0.i64(ptr noundef nonnull align 8 dereferenceable(24) %5, i8 0, i64 24, i1 false)
  %6 = getelementptr inbounds i8, ptr %0, i64 16
  %7 = load ptr, ptr %6, align 8
  %8 = getelementptr inbounds i8, ptr %0, i64 8
  %9 = load ptr, ptr %8, align 8
  invoke void @_ZNK16cmLocalGenerator21GetIncludeDirectoriesERSt6vectorINSt7__cxx1112basic_stringIcSt11char_traitsIcESaIcEEESaIS6_EEPK17cmGeneratorTargetRKS6_SE_(ptr noundef nonnull align 8 dereferenceable(824) %7, ptr noundef nonnull align 8 dereferenceable(24) %5, ptr noundef %9, ptr noundef nonnull align 8 dereferenceable(32) %3, ptr noundef nonnull align 8 dereferenceable(32) %2)
          to label %10 unwind label %.loopexit.split-lp

10:                                               ; preds = %4
  %11 = load ptr, ptr %5, align 8
  %12 = getelementptr inbounds i8, ptr %5, i64 8
  %13 = load ptr, ptr %12, align 8
  %.not11 = icmp eq ptr %11, %13
  br i1 %.not11, label %_ZSt8_DestroyIPNSt7__cxx1112basic_stringIcSt11char_traitsIcESaIcEEES5_EvT_S7_RSaIT0_E.exit.i, label %.lr.ph

.lr.ph:                                           ; preds = %10, %19
  %.sroa.08.012 = phi ptr [ %20, %19 ], [ %11, %10 ]
  %14 = invoke noundef nonnull align 8 dereferenceable(8) ptr @_ZStlsISt11char_traitsIcEERSt13basic_ostreamIcT_ES5_PKc(ptr noundef nonnull align 8 dereferenceable(8) %1, ptr noundef nonnull @.str.16)
          to label %15 unwind label %.loopexit

15:                                               ; preds = %.lr.ph
  %16 = invoke noundef nonnull align 8 dereferenceable(8) ptr @_ZStlsIcSt11char_traitsIcESaIcEERSt13basic_ostreamIT_T0_ES7_RKNSt7__cxx1112basic_stringIS4_S5_T1_EE(ptr noundef nonnull align 8 dereferenceable(8) %14, ptr noundef nonnull align 8 dereferenceable(32) %.sroa.08.012)
          to label %17 unwind label %.loopexit

17:                                               ; preds = %15
  %18 = invoke noundef nonnull align 8 dereferenceable(8) ptr @_ZStlsISt11char_traitsIcEERSt13basic_ostreamIcT_ES5_PKc(ptr noundef nonnull align 8 dereferenceable(8) %16, ptr noundef nonnull @.str.10)
          to label %19 unwind label %.loopexit

19:                                               ; preds = %17
  %20 = getelementptr inbounds i8, ptr %.sroa.08.012, i64 32
  %.not = icmp eq ptr %20, %13
  br i1 %.not, label %._crit_edge, label %.lr.ph

.loopexit:                                        ; preds = %.lr.ph, %15, %17
  %lpad.loopexit = landingpad { ptr, i32 }
          cleanup
  br label %21

.loopexit.split-lp:                               ; preds = %4
  %lpad.loopexit.split-lp = landingpad { ptr, i32 }
          cleanup
  br label %21

21:                                               ; preds = %.loopexit.split-lp, %.loopexit
  %lpad.phi = phi { ptr, i32 } [ %lpad.loopexit, %.loopexit ], [ %lpad.loopexit.split-lp, %.loopexit.split-lp ]
  call void @_ZNSt6vectorINSt7__cxx1112basic_stringIcSt11char_traitsIcESaIcEEESaIS5_EED2Ev(ptr noundef nonnull align 8 dereferenceable(24) %5) #21
  resume { ptr, i32 } %lpad.phi

._crit_edge:                                      ; preds = %19
  %.pre = load ptr, ptr %5, align 8
  %.pre13 = load ptr, ptr %12, align 8
  %.not4.i.i.i.i = icmp eq ptr %.pre, %.pre13
  br i1 %.not4.i.i.i.i, label %_ZSt8_DestroyIPNSt7__cxx1112basic_stringIcSt11char_traitsIcESaIcEEES5_EvT_S7_RSaIT0_E.exit.i, label %.lr.ph.i.i.i.i

.lr.ph.i.i.i.i:                                   ; preds = %._crit_edge, %.lr.ph.i.i.i.i
  %.05.i.i.i.i = phi ptr [ %22, %.lr.ph.i.i.i.i ], [ %.pre, %._crit_edge ]
  call void @_ZNSt7__cxx1112basic_stringIcSt11char_traitsIcESaIcEED1Ev(ptr noundef nonnull align 8 dereferenceable(32) %.05.i.i.i.i) #21
  %22 = getelementptr inbounds i8, ptr %.05.i.i.i.i, i64 32
  %.not.i.i.i.i = icmp eq ptr %22, %.pre13
  br i1 %.not.i.i.i.i, label %_ZSt8_DestroyIPNSt7__cxx1112basic_stringIcSt11char_traitsIcESaIcEEES5_EvT_S7_RSaIT0_E.exitthread-pre-split.i, label %.lr.ph.i.i.i.i, !llvm.loop !73

_ZSt8_DestroyIPNSt7__cxx1112basic_stringIcSt11char_traitsIcESaIcEEES5_EvT_S7_RSaIT0_E.exitthread-pre-split.i: ; preds = %.lr.ph.i.i.i.i
  %.pr.i = load ptr, ptr %5, align 8
  br label %_ZSt8_DestroyIPNSt7__cxx1112basic_stringIcSt11char_traitsIcESaIcEEES5_EvT_S7_RSaIT0_E.exit.i

_ZSt8_DestroyIPNSt7__cxx1112basic_stringIcSt11char_traitsIcESaIcEEES5_EvT_S7_RSaIT0_E.exit.i: ; preds = %10, %_ZSt8_DestroyIPNSt7__cxx1112basic_stringIcSt11char_traitsIcESaIcEEES5_EvT_S7_RSaIT0_E.exitthread-pre-split.i, %._crit_edge
  %23 = phi ptr [ %.pr.i, %_ZSt8_DestroyIPNSt7__cxx1112basic_stringIcSt11char_traitsIcESaIcEEES5_EvT_S7_RSaIT0_E.exitthread-pre-split.i ], [ %.pre13, %._crit_edge ], [ %11, %10 ]
  %.not.i.i.i = icmp eq ptr %23, null
  br i1 %.not.i.i.i, label %_ZNSt6vectorINSt7__cxx1112basic_stringIcSt11char_traitsIcESaIcEEESaIS5_EED2Ev.exit, label %24

24:                                               ; preds = %_ZSt8_DestroyIPNSt7__cxx1112basic_stringIcSt11char_traitsIcESaIcEEES5_EvT_S7_RSaIT0_E.exit.i
  call void @_ZdlPv(ptr noundef nonnull %23) #23
  br label %_ZNSt6vectorINSt7__cxx1112basic_stringIcSt11char_traitsIcESaIcEEESaIS5_EED2Ev.exit

_ZNSt6vectorINSt7__cxx1112basic_stringIcSt11char_traitsIcESaIcEEESaIS5_EED2Ev.exit: ; preds = %_ZSt8_DestroyIPNSt7__cxx1112basic_stringIcSt11char_traitsIcESaIcEEES5_EvT_S7_RSaIT0_E.exit.i, %24
  ret void
}